; Function Attrs: mustprogress uwtable
define internal fastcc void @_ZL15AppendAttributeR11cmXMLWriterPKc(ptr noundef nonnull align 8 dereferenceable(83) %0, ptr noundef %1) unnamed_addr #4 personality ptr @__gxx_personality_v0 {
  %3 = alloca %class.cmXMLSafe, align 8
  %4 = alloca %class.cmXMLSafe, align 8
  %5 = alloca %"class.std::__cxx11::basic_string", align 8
  %6 = alloca %"class.std::allocator", align 1
  call void @_ZNSaIcEC1Ev(ptr noundef nonnull align 1 dereferenceable(1) %6) #19
  %7 = invoke noundef ptr @_ZNSt7__cxx1112basic_stringIcSt11char_traitsIcESaIcEE13_M_local_dataEv(ptr noundef nonnull align 8 dereferenceable(32) %5)
          to label %.noexc unwind label %21

.noexc:                                           ; preds = %2
  invoke void @_ZNSt7__cxx1112basic_stringIcSt11char_traitsIcESaIcEE12_Alloc_hiderC1EPcRKS3_(ptr noundef nonnull align 8 dereferenceable(8) %5, ptr noundef %7, ptr noundef nonnull align 1 dereferenceable(1) %6)
          to label %.noexc7 unwind label %21

.noexc7:                                          ; preds = %.noexc
  invoke void @_ZNSt7__cxx1112basic_stringIcSt11char_traitsIcESaIcEE12_M_constructIPKcEEvT_S8_St20forward_iterator_tag(ptr noundef nonnull align 8 dereferenceable(32) %5, ptr noundef nonnull @.str.223, ptr noundef nonnull getelementptr inbounds ([10 x i8], ptr @.str.223, i64 0, i64 9))
          to label %_ZNSt7__cxx1112basic_stringIcSt11char_traitsIcESaIcEEC2IS3_EEPKcRKS3_.exit unwind label %8

8:                                                ; preds = %.noexc7
  %9 = landingpad { ptr, i32 }
          cleanup
  call void @_ZNSaIcED2Ev(ptr noundef nonnull align 1 dereferenceable(1) %5) #19
  br label %.body

_ZNSt7__cxx1112basic_stringIcSt11char_traitsIcESaIcEEC2IS3_EEPKcRKS3_.exit: ; preds = %.noexc7
  invoke void @_ZN11cmXMLWriter12StartElementERKNSt7__cxx1112basic_stringIcSt11char_traitsIcESaIcEEE(ptr noundef nonnull align 8 dereferenceable(83) %0, ptr noundef nonnull align 8 dereferenceable(32) %5)
          to label %10 unwind label %23

10:                                               ; preds = %_ZNSt7__cxx1112basic_stringIcSt11char_traitsIcESaIcEEC2IS3_EEPKcRKS3_.exit
  call void @_ZNSt7__cxx1112basic_stringIcSt11char_traitsIcESaIcEED1Ev(ptr noundef nonnull align 8 dereferenceable(32) %5) #19
  call void @_ZNSaIcED1Ev(ptr noundef nonnull align 1 dereferenceable(1) %6) #19
  call void @llvm.lifetime.start.p0(i64 24, ptr nonnull %4)
  call void @_ZN11cmXMLWriter12PreAttributeEv(ptr noundef nonnull align 8 dereferenceable(83) %0)
  %11 = load ptr, ptr %0, align 8
  %12 = call noundef nonnull align 8 dereferenceable(8) ptr @_ZStlsISt11char_traitsIcEERSt13basic_ostreamIcT_ES5_PKc(ptr noundef nonnull align 8 dereferenceable(8) %11, ptr noundef nonnull @.str.224)
  %13 = call noundef nonnull align 8 dereferenceable(8) ptr @_ZStlsISt11char_traitsIcEERSt13basic_ostreamIcT_ES5_PKc(ptr noundef nonnull align 8 dereferenceable(8) %12, ptr noundef nonnull @.str.226)
  call void @_ZN9cmXMLSafeC1EPKc(ptr noundef nonnull align 8 dereferenceable(17) %4, ptr noundef %1)
  %14 = call noundef nonnull align 8 dereferenceable(8) ptr @_ZlsRSoRK9cmXMLSafe(ptr noundef nonnull align 8 dereferenceable(8) %13, ptr noundef nonnull align 8 dereferenceable(17) %4)
  %15 = call noundef nonnull align 8 dereferenceable(8) ptr @_ZStlsISt11char_traitsIcEERSt13basic_ostreamIcT_ES5_c(ptr noundef nonnull align 8 dereferenceable(8) %14, i8 noundef signext 34)
  call void @llvm.lifetime.end.p0(i64 24, ptr nonnull %4)
  call void @llvm.lifetime.start.p0(i64 24, ptr nonnull %3)
  call void @_ZN11cmXMLWriter12PreAttributeEv(ptr noundef nonnull align 8 dereferenceable(83) %0)
  %16 = load ptr, ptr %0, align 8
  %17 = call noundef nonnull align 8 dereferenceable(8) ptr @_ZStlsISt11char_traitsIcEERSt13basic_ostreamIcT_ES5_PKc(ptr noundef nonnull align 8 dereferenceable(8) %16, ptr noundef nonnull @.str.152)
  %18 = call noundef nonnull align 8 dereferenceable(8) ptr @_ZStlsISt11char_traitsIcEERSt13basic_ostreamIcT_ES5_PKc(ptr noundef nonnull align 8 dereferenceable(8) %17, ptr noundef nonnull @.str.226)
  call void @_ZN9cmXMLSafeC1EPKc(ptr noundef nonnull align 8 dereferenceable(17) %3, ptr noundef %1)
  %19 = call noundef nonnull align 8 dereferenceable(8) ptr @_ZlsRSoRK9cmXMLSafe(ptr noundef nonnull align 8 dereferenceable(8) %18, ptr noundef nonnull align 8 dereferenceable(17) %3)
  %20 = call noundef nonnull align 8 dereferenceable(8) ptr @_ZStlsISt11char_traitsIcEERSt13basic_ostreamIcT_ES5_c(ptr noundef nonnull align 8 dereferenceable(8) %19, i8 noundef signext 34)
  call void @llvm.lifetime.end.p0(i64 24, ptr nonnull %3)
  call void @_ZN11cmXMLWriter10EndElementEv(ptr noundef nonnull align 8 dereferenceable(83) %0)
  ret void

21:                                               ; preds = %.noexc, %2
  %22 = landingpad { ptr, i32 }
          cleanup
  br label %.body

23:                                               ; preds = %_ZNSt7__cxx1112basic_stringIcSt11char_traitsIcESaIcEEC2IS3_EEPKcRKS3_.exit
  %24 = landingpad { ptr, i32 }
          cleanup
  call void @_ZNSt7__cxx1112basic_stringIcSt11char_traitsIcESaIcEED1Ev(ptr noundef nonnull align 8 dereferenceable(32) %5) #19
  br label %.body

.body:                                            ; preds = %21, %8, %23
  %.pn = phi { ptr, i32 } [ %24, %23 ], [ %22, %21 ], [ %9, %8 ]
  call void @_ZNSaIcED1Ev(ptr noundef nonnull align 1 dereferenceable(1) %6) #19
  resume { ptr, i32 } %.pn
}